; Function Attrs: mustprogress uwtable
define void @_ZN5Yosys12define_map_t3addERKNSt7__cxx1112basic_stringIcSt11char_traitsIcESaIcEEERKNS_13define_body_tE(ptr noundef nonnull align 8 dereferenceable(48) %0, ptr noundef nonnull align 8 dereferenceable(32) %1, ptr noundef nonnull align 8 dereferenceable(112) %2) local_unnamed_addr #4 align 2 personality ptr @__gxx_personality_v0 {
  %4 = alloca %"class.std::unique_ptr", align 8
  call void @llvm.lifetime.start.p0(i64 8, ptr nonnull %4) #27
  %5 = tail call noalias noundef nonnull dereferenceable(112) ptr @_Znwm(i64 noundef 112) #28
  invoke void @_ZN5Yosys13define_body_tC2ERKS0_(ptr noundef nonnull align 8 dereferenceable(112) %5, ptr noundef nonnull align 8 dereferenceable(112) %2)
          to label %6 unwind label %10

6:                                                ; preds = %3
  store ptr %5, ptr %4, align 8, !tbaa !31
  %7 = invoke noundef nonnull align 8 dereferenceable(8) ptr @_ZNSt3mapINSt7__cxx1112basic_stringIcSt11char_traitsIcESaIcEEESt10unique_ptrIN5Yosys13define_body_tESt14default_deleteIS8_EESt4lessIS5_ESaISt4pairIKS5_SB_EEEixERSF_(ptr noundef nonnull align 8 dereferenceable(48) %0, ptr noundef nonnull align 8 dereferenceable(32) %1)
          to label %8 unwind label %12

8:                                                ; preds = %6
  %9 = load ptr, ptr %7, align 8, !tbaa !31
  store ptr %5, ptr %7, align 8, !tbaa !31
  %.not.i.i.i.i = icmp eq ptr %9, null
  br i1 %.not.i.i.i.i, label %_ZNSt10unique_ptrIN5Yosys13define_body_tESt14default_deleteIS1_EED2Ev.exit, label %_ZNKSt14default_deleteIN5Yosys13define_body_tEEclEPS1_.exit.i.i.i.i

_ZNKSt14default_deleteIN5Yosys13define_body_tEEclEPS1_.exit.i.i.i.i: ; preds = %8
  tail call void @_ZN5Yosys13define_body_tD2Ev(ptr noundef nonnull align 8 dereferenceable(112) %9) #27
  tail call void @_ZdlPvm(ptr noundef nonnull %9, i64 noundef 112) #26
  br label %_ZNSt10unique_ptrIN5Yosys13define_body_tESt14default_deleteIS1_EED2Ev.exit

_ZNSt10unique_ptrIN5Yosys13define_body_tESt14default_deleteIS1_EED2Ev.exit: ; preds = %_ZNKSt14default_deleteIN5Yosys13define_body_tEEclEPS1_.exit.i.i.i.i, %8
  call void @llvm.lifetime.end.p0(i64 8, ptr nonnull %4) #27
  ret void

10:                                               ; preds = %3
  %11 = landingpad { ptr, i32 }
          cleanup
  tail call void @_ZdlPvm(ptr noundef nonnull %5, i64 noundef 112) #26
  br label %14

12:                                               ; preds = %6
  %13 = landingpad { ptr, i32 }
          cleanup
  call void @_ZNSt10unique_ptrIN5Yosys13define_body_tESt14default_deleteIS1_EED2Ev(ptr noundef nonnull align 8 dereferenceable(8) %4) #27
  br label %14

14:                                               ; preds = %12, %10
  %.pn = phi { ptr, i32 } [ %13, %12 ], [ %11, %10 ]
  call void @llvm.lifetime.end.p0(i64 8, ptr nonnull %4) #27
  resume { ptr, i32 } %.pn
}